******************************************************************************
               TMS320C6x Linker PC v7.4.15                     
******************************************************************************
>> Linked Tue Feb 28 17:19:18 2017

OUTPUT FILE NAME:   <ADS7945_TEST.out>
ENTRY POINT SYMBOL: "_c_int00"  address: 00004e40


MEMORY CONFIGURATION

         name            origin    length      used     unused   attr    fill
----------------------  --------  ---------  --------  --------  ----  --------
  INM                   00000000   00000400  00000000  00000400  RWIX
  L2RAM                 00000400   00100000  00008ca0  000f7360  RWIX
  EMIFBCE0              60000000   04000000  00000000  04000000  RWIX
  EMIFBCE1              64000000   04000000  00000000  04000000  RWIX
  EMIFBCE2              68000000   04000000  00000000  04000000  RWIX
  EMIFBCE3              6c000000   04000000  00000000  04000000  RWIX
  EMIFACE0              80000000   10000000  00000000  10000000  RWIX
  EMIFACE1              90000000   10000000  00000000  10000000  RWIX
  EMIFACE2              a0000000   10000000  00000000  10000000  RWIX
  EMIFACE3              b0000000   10000000  00000000  10000000  RWIX


SECTION ALLOCATION MAP

 output                                  attributes/
section   page    origin      length       input sections
--------  ----  ----------  ----------   ----------------
.pinit     0    00000400    00000000     UNINITIALIZED

$BRID      0    00000000    00000254     COPY SECTION
                  00000000    00000014     csl6416.lib : csl.obj ($BRID)
                  00000014    000000e4                 : csl_edma.obj ($BRID)
                  000000f8    00000078                 : csl_irq.obj ($BRID)
                  00000170    00000080                 : csl_mcbsp.obj ($BRID)
                  000001f0    00000064                 : csl_timer.obj ($BRID)

.data      0    00000400    00000000     UNINITIALIZED

.text      0    00000400    00004e60     
                  00000400    00000b60     main.obj (.text)
                  00000f60    000005e0     rts6400.lib : divd.obj (.text:__divd)
                  00001540    00000520                 : cos.obj (.text:_cos)
                  00001a60    000003e0     main.obj (.text:retain)
                  00001e40    000003c0     rts6400.lib : divf.obj (.text:__divf)
                  00002200    000001e0     csl6416.lib : csl_edma.obj (.text:_EDMA_open)
                  000023e0    00000020                 : csl.obj (.text:_CSL6416_LIB_)
                  00002400    00000300     vecs.obj (.text:vecs)
                  00002700    000002a0     rts6400.lib : mpyd.obj (.text:__mpyd)
                  000029a0    00000260                 : frcaddd.obj (.text:__frcaddd)
                  00002c00    00000240                 : addd.obj (.text:__addd)
                  00002e40    000001e0     csl6416.lib : csl_irq.obj (.text:_IRQ_map)
                  00003020    000001c0                 : csl_mcbsp.obj (.text:_MCBSP_reset)
                  000031e0    000001a0                 : csl_edma.obj (.text:_EDMA_allocTable)
                  00003380    000001a0                 : csl.obj (.text:__CSL_init)
                  00003520    00000160     rts6400.lib : round.obj (.text:__nround)
                  00003680    00000140     csl6416.lib : csl_timer.obj (.text:_TIMER_open)
                  000037c0    00000120     rts6400.lib : frcmpyd.obj (.text:__frcmpyd)
                  000038e0    00000100     csl6416.lib : csl_timer.obj (.text:_TIMER_reset)
                  000039e0    00000100     rts6400.lib : frcmpyd_div.obj (.text:__frcmpyd_div)
                  00003ae0    00000100                 : memset.obj (.text:_memset)
                  00003be0    000000e0     csl6416.lib : csl_edma.obj (.text:_EDMA_reset)
                  00003cc0    000000e0                 : csl_mcbsp.obj (.text:_MCBSP_start)
                  00003da0    000000e0     rts6400.lib : autoinit.obj (.text:__auto_init)
                  00003e80    000000e0                 : cmpd.obj (.text:__cmpd)
                  00003f60    000000e0                 : memcpy64.obj (.text:_memcpy)
                  00004040    000000e0                 : modf.obj (.text:_modf)
                  00004120    000000c0     csl6416.lib : csl_edma.obj (.text:_EDMA_config)
                  000041e0    000000c0                 : csl_mcbsp.obj (.text:_MCBSP_config)
                  000042a0    000000c0                 : csl_mcbsp.obj (.text:_MCBSP_open)
                  00004360    000000c0     rts6400.lib : exit.obj (.text:_exit)
                  00004420    000000c0     csl6416.lib : csl_irq.obj (.text:_mux2Tables)
                  000044e0    000000a0                 : csl_edma.obj (.text:_EDMA_disableChannel)
                  00004580    000000a0                 : csl_edma.obj (.text:_EDMA_enableChannel)
                  00004620    000000a0                 : csl_edma.obj (.text:_EDMA_intDisable)
                  000046c0    000000a0                 : csl_edma.obj (.text:_EDMA_intEnable)
                  00004760    000000a0     rts6400.lib : renormd.obj (.text:__renormd)
                  00004800    000000a0                 : cpy_tbl.obj (.text:_copy_in)
                  000048a0    000000a0     csl6416.lib : csl_irq.obj (.text:_getMux)
                  00004940    000000a0                 : csl_irq.obj (.text:_setMux)
                  000049e0    00000080                 : csl_edma.obj (.text:_EDMA_clearPram)
                  00004a60    00000080                 : csl_irq.obj (.text:__IRQ_init)
                  00004ae0    00000080     rts6400.lib : cpp_init.obj (.text:___TI_cpp_init)
                  00004b60    00000080                 : fixdi.obj (.text:__fixdi)
                  00004be0    00000080                 : mpyll.obj (.text:__mpyll)
                  00004c60    00000060     csl6416.lib : csl_edma.obj (.text:_EDMA_qdmaConfig)
                  00004cc0    00000060     rts6400.lib : cvtfd.obj (.text:__cvtfd)
                  00004d20    00000060                 : fltid.obj (.text:__fltid)
                  00004d80    00000060                 : fltuld.obj (.text:__fltuld)
                  00004de0    00000060                 : fltulf.obj (.text:__fltulf)
                  00004e40    00000060                 : boot.obj (.text:_c_int00)
                  00004ea0    00000040     csl6416.lib : csl_edma.obj (.text:_EDMA_clearChannel)
                  00004ee0    00000040                 : csl_edma.obj (.text:_EDMA_intClear)
                  00004f20    00000040                 : csl_irq.obj (.text:_IRQ_disable)
                  00004f60    00000040                 : csl_irq.obj (.text:_IRQ_reset)
                  00004fa0    00000040     rts6400.lib : args_main.obj (.text:__args_main)
                  00004fe0    00000040                 : fltuf.obj (.text:__fltuf)
                  00005020    00000040                 : frcmpyf_div.obj (.text:__frcmpyf_div)
                  00005060    00000040                 : negd.obj (.text:__negd)
                  000050a0    00000040                 : subd.obj (.text:__subd)
                  000050e0    00000020     csl6416.lib : csl_edma.obj (.text:_EDMA_link)
                  00005100    00000020                 : csl_irq.obj (.text:_IRQ_enable)
                  00005120    00000020                 : csl_irq.obj (.text:_IRQ_globalDisable)
                  00005140    00000020                 : csl_irq.obj (.text:_IRQ_globalEnable)
                  00005160    00000020                 : csl_irq.obj (.text:_IRQ_nmiEnable)
                  00005180    00000020                 : csl_irq.obj (.text:_IRQ_setVecs)
                  000051a0    00000020                 : csl_mcbsp.obj (.text:_MCBSP_read)
                  000051c0    00000020                 : csl_mcbsp.obj (.text:_MCBSP_rrdy)
                  000051e0    00000020     rts6400.lib : trunc.obj (.text:__trunc)
                  00005200    00000020                 : exit.obj (.text:_abort)
                  00005220    00000020     csl6416.lib : csl_irq.obj (.text)
                  00005240    00000020     vecs.obj (.text)

.bss       0    00005260    00000020     UNINITIALIZED
                  00005260    00000020     main.obj (.bss)

.far       0    00005280    00003214     UNINITIALIZED
                  00005280    00002fc0     main.obj (.far)
                  00008240    00000100     csl6416.lib : csl_irq.obj (.far)
                  00008340    00000058                 : csl_edma.obj (.far)
                  00008398    00000054                 : csl_mcbsp.obj (.far)
                  000083ec    00000004     --HOLE--
                  000083f0    00000040     rts6400.lib : cos.obj (.far)
                  00008430    00000030     csl6416.lib : csl_timer.obj (.far)
                  00008460    00000028                 : csl.obj (.far)
                  00008488    0000000c     rts6400.lib : exit.obj (.far)

.stack     0    00008498    00000800     UNINITIALIZED
                  00008498    00000008     rts6400.lib : boot.obj (.stack)
                  000084a0    000007f8     --HOLE--

.cinit     0    00008c98    000003fc     
                  00008c98    0000012c     csl6416.lib : csl_irq.obj (.cinit)
                  00008dc4    00000004     --HOLE-- [fill = 0]
                  00008dc8    000000b0     main.obj (.cinit)
                  00008e78    00000080     csl6416.lib : csl_edma.obj (.cinit)
                  00008ef8    0000007c                 : csl_mcbsp.obj (.cinit)
                  00008f74    00000004     --HOLE-- [fill = 0]
                  00008f78    0000005c                 : csl_timer.obj (.cinit)
                  00008fd4    00000004     --HOLE-- [fill = 0]
                  00008fd8    00000048     rts6400.lib : cos.obj (.cinit)
                  00009020    0000003c     csl6416.lib : csl.obj (.cinit)
                  0000905c    00000004     --HOLE-- [fill = 0]
                  00009060    0000002c     rts6400.lib : exit.obj (.cinit)
                  0000908c    00000004     --HOLE-- [fill = 0]
                  00009090    00000004     (.pad.cinit) [fill = 0]

.const     0    00009098    00000010     
                  00009098    00000008     rts6400.lib : divd.obj (.const:.string:_initial_approx$1)
                  000090a0    00000008                 : divf.obj (.const:.string:_initial_approx$1)


GLOBAL SYMBOLS: SORTED ALPHABETICALLY BY Name 

address    name
--------   ----
00005260   $bss
00005260   .bss
00000400   .data
00000400   .text
00005200   C$$EXIT
00005268   _Buffflag
00000448   _Build_Frenal
000023e0   _CSL6416_LIB_
00001a60   _EDMA0_int
000031e0   _EDMA_allocTable
00004ea0   _EDMA_clearChannel
000049e0   _EDMA_clearPram
00004120   _EDMA_config
000044e0   _EDMA_disableChannel
00004580   _EDMA_enableChannel
00004ee0   _EDMA_intClear
00004620   _EDMA_intDisable
000046c0   _EDMA_intEnable
000050e0   _EDMA_link
00002200   _EDMA_open
00004c60   _EDMA_qdmaConfig
00003be0   _EDMA_reset
00004f20   _IRQ_disable
00005100   _IRQ_enable
00005120   _IRQ_globalDisable
00005140   _IRQ_globalEnable
00002e40   _IRQ_map
00005160   _IRQ_nmiEnable
00004f60   _IRQ_reset
00005180   _IRQ_setVecs
000041e0   _MCBSP_config
000042a0   _MCBSP_open
000051a0   _MCBSP_read
00003020   _MCBSP_reset
000051c0   _MCBSP_rrdy
00003cc0   _MCBSP_start
00001bd8   _Mcbsp0_RX_int
0000526c   _My_Mcbsp0
00005270   _My_Mcbsp1
000081d8   _Ping_EDMA_config
000081f0   _Pong_EDMA_config
00003680   _TIMER_open
000038e0   _TIMER_reset
00003380   __CSL_init
00008338   __IRQ_dispatchTable
00008270   __IRQ_eventTable
00005220   __IRQ_hookFetchPacket
00004a60   __IRQ_init
000082f8   __IRQ_intTable
000083e0   __MCBSP_hDev0
000083e4   __MCBSP_hDev1
000083e8   __MCBSP_hDev2
00008c98   __STACK_END
00000800   __STACK_SIZE
00008430   __TIMER_deviceTable
0000845c   __TIMER_hBios
00008454   __TIMER_hDev0
00008458   __TIMER_hDev1
00000001   __TI_args_main
00004ae0   ___TI_cpp_init
00008490   ___TI_enable_exit_profile_output
ffffffff   ___TI_pprof_out_hndl
ffffffff   ___TI_prof_data_size
ffffffff   ___TI_prof_data_start
ffffffff   ___binit__
00005260   ___bss__
ffffffff   ___c_args__
00008c98   ___cinit__
00000400   ___data__
00000400   ___edata__
00005280   ___end__
00005260   ___etext__
ffffffff   ___pinit__
00000400   ___text__
00002c00   __addd
00004fa0   __args_main
00003da0   __auto_init
00008488   __cleanup_ptr
00003e80   __cmpd
00004cc0   __cvtfd
00000f60   __divd
00001e40   __divf
0000848c   __dtors_ptr
00004b60   __fixdi
00004d20   __fltid
00004fe0   __fltuf
00004d80   __fltuld
00004de0   __fltulf
000029a0   __frcaddd
000037c0   __frcmpyd
000039e0   __frcmpyd_div
00005020   __frcmpyf_div
00002700   __mpyd
00004be0   __mpyll
00005060   __negd
00003520   __nround
00004760   __renormd
00008498   __stack
000050a0   __subd
000051e0   __trunc
00005200   _abort
00004e40   _c_int00
000081c0   _cfgEdma
00004800   _copy_in
00001540   _cos
00004360   _exit
00005274   _hEdma
00005278   _hEdmaPing
0000527c   _hEdmaPong
00000aec   _main
00003f60   _memcpy
00003ae0   _memset
00004040   _modf
00006280   _outbuff
00005280   _ping
00005a80   _pong
00008358   _tccAllocTable
00002420   _vector1
00002540   _vector10
00002560   _vector11
00002580   _vector12
000025c0   _vector14
000025e0   _vector15
00002600   _vector16
00002620   _vector17
00002640   _vector18
00002660   _vector19
00002440   _vector2
00002680   _vector20
000026a0   _vector21
000026c0   _vector22
000026e0   _vector23
00002460   _vector3
00002480   _vector4
000024a0   _vector5
000024c0   _vector6
000024e0   _vector7
00002520   _vector9
00002400   _vectors
ffffffff   binit
00008c98   cinit
00000400   edata
00005280   end
00005260   etext
ffffffff   pinit


GLOBAL SYMBOLS: SORTED BY Symbol Address 

address    name
--------   ----
00000001   __TI_args_main
00000400   .data
00000400   .text
00000400   ___data__
00000400   ___edata__
00000400   ___text__
00000400   edata
00000448   _Build_Frenal
00000800   __STACK_SIZE
00000aec   _main
00000f60   __divd
00001540   _cos
00001a60   _EDMA0_int
00001bd8   _Mcbsp0_RX_int
00001e40   __divf
00002200   _EDMA_open
000023e0   _CSL6416_LIB_
00002400   _vectors
00002420   _vector1
00002440   _vector2
00002460   _vector3
00002480   _vector4
000024a0   _vector5
000024c0   _vector6
000024e0   _vector7
00002520   _vector9
00002540   _vector10
00002560   _vector11
00002580   _vector12
000025c0   _vector14
000025e0   _vector15
00002600   _vector16
00002620   _vector17
00002640   _vector18
00002660   _vector19
00002680   _vector20
000026a0   _vector21
000026c0   _vector22
000026e0   _vector23
00002700   __mpyd
000029a0   __frcaddd
00002c00   __addd
00002e40   _IRQ_map
00003020   _MCBSP_reset
000031e0   _EDMA_allocTable
00003380   __CSL_init
00003520   __nround
00003680   _TIMER_open
000037c0   __frcmpyd
000038e0   _TIMER_reset
000039e0   __frcmpyd_div
00003ae0   _memset
00003be0   _EDMA_reset
00003cc0   _MCBSP_start
00003da0   __auto_init
00003e80   __cmpd
00003f60   _memcpy
00004040   _modf
00004120   _EDMA_config
000041e0   _MCBSP_config
000042a0   _MCBSP_open
00004360   _exit
000044e0   _EDMA_disableChannel
00004580   _EDMA_enableChannel
00004620   _EDMA_intDisable
000046c0   _EDMA_intEnable
00004760   __renormd
00004800   _copy_in
000049e0   _EDMA_clearPram
00004a60   __IRQ_init
00004ae0   ___TI_cpp_init
00004b60   __fixdi
00004be0   __mpyll
00004c60   _EDMA_qdmaConfig
00004cc0   __cvtfd
00004d20   __fltid
00004d80   __fltuld
00004de0   __fltulf
00004e40   _c_int00
00004ea0   _EDMA_clearChannel
00004ee0   _EDMA_intClear
00004f20   _IRQ_disable
00004f60   _IRQ_reset
00004fa0   __args_main
00004fe0   __fltuf
00005020   __frcmpyf_div
00005060   __negd
000050a0   __subd
000050e0   _EDMA_link
00005100   _IRQ_enable
00005120   _IRQ_globalDisable
00005140   _IRQ_globalEnable
00005160   _IRQ_nmiEnable
00005180   _IRQ_setVecs
000051a0   _MCBSP_read
000051c0   _MCBSP_rrdy
000051e0   __trunc
00005200   C$$EXIT
00005200   _abort
00005220   __IRQ_hookFetchPacket
00005260   $bss
00005260   .bss
00005260   ___bss__
00005260   ___etext__
00005260   etext
00005268   _Buffflag
0000526c   _My_Mcbsp0
00005270   _My_Mcbsp1
00005274   _hEdma
00005278   _hEdmaPing
0000527c   _hEdmaPong
00005280   ___end__
00005280   _ping
00005280   end
00005a80   _pong
00006280   _outbuff
000081c0   _cfgEdma
000081d8   _Ping_EDMA_config
000081f0   _Pong_EDMA_config
00008270   __IRQ_eventTable
000082f8   __IRQ_intTable
00008338   __IRQ_dispatchTable
00008358   _tccAllocTable
000083e0   __MCBSP_hDev0
000083e4   __MCBSP_hDev1
000083e8   __MCBSP_hDev2
00008430   __TIMER_deviceTable
00008454   __TIMER_hDev0
00008458   __TIMER_hDev1
0000845c   __TIMER_hBios
00008488   __cleanup_ptr
0000848c   __dtors_ptr
00008490   ___TI_enable_exit_profile_output
00008498   __stack
00008c98   __STACK_END
00008c98   ___cinit__
00008c98   cinit
ffffffff   ___TI_pprof_out_hndl
ffffffff   ___TI_prof_data_size
ffffffff   ___TI_prof_data_start
ffffffff   ___binit__
ffffffff   ___c_args__
ffffffff   ___pinit__
ffffffff   binit
ffffffff   pinit

[145 symbols]
